; Function Attrs: nounwind uwtable
define hidden void @Wayland_DisplayInitInputTimestampManager(ptr noundef readonly captures(address) %0) local_unnamed_addr #0 {
  %2 = getelementptr inbounds nuw i8, ptr %0, i64 176
  %3 = load ptr, ptr %2, align 8
  %.not = icmp eq ptr %3, null
  br i1 %.not, label %.loopexit, label %4

4:                                                ; preds = %1
  %5 = getelementptr inbounds nuw i8, ptr %0, i64 248
  %6 = getelementptr inbounds nuw i8, ptr %0, i64 256
  %.pn8 = load ptr, ptr %6, align 8
  %.not79 = icmp eq ptr %.pn8, %5
  br i1 %.not79, label %.loopexit, label %.lr.ph

.lr.ph:                                           ; preds = %4, %.lr.ph
  %.pn10 = phi ptr [ %.pn, %.lr.ph ], [ %.pn8, %4 ]
  %.0 = getelementptr inbounds i8, ptr %.pn10, i64 -40
  tail call fastcc void @Wayland_SeatRegisterInputTimestampListeners(ptr noundef nonnull %.0)
  %7 = getelementptr inbounds nuw i8, ptr %.pn10, i64 8
  %.pn = load ptr, ptr %7, align 8
  %.not7 = icmp eq ptr %.pn, %5
  br i1 %.not7, label %.loopexit, label %.lr.ph, !llvm.loop !3

.loopexit:                                        ; preds = %.lr.ph, %4, %1
  ret void
}